target datalayout = "e-m:e-p270:32:32-p271:32:32-p272:64:64-i64:64-i128:128-f80:128-n8:16:32:64-S128"
target triple = "x86_64-pc-linux-gnu"

@.str.30 = private unnamed_addr constant [2 x i8] c",\00", align 1

; Function Attrs: null_pointer_is_valid sspstrong uwtable
define internal zeroext i1 @prefs_is_column_visible(ptr noundef %0, i32 noundef %1) #1 {
  %3 = alloca i1, align 1
  %4 = alloca ptr, align 8
  %5 = alloca i32, align 4
  %6 = alloca ptr, align 8
  %7 = alloca ptr, align 8
  %8 = alloca ptr, align 8
  %9 = alloca i32, align 4
  %10 = alloca i32, align 4
  store ptr %0, ptr %4, align 8
  store i32 %1, ptr %5, align 4
  call void @llvm.lifetime.start.p0(i64 8, ptr %6) #17
  call void @llvm.lifetime.start.p0(i64 8, ptr %7) #17
  call void @llvm.lifetime.start.p0(i64 8, ptr %8) #17
  call void @llvm.lifetime.start.p0(i64 4, ptr %9) #17
  %11 = load ptr, ptr %4, align 8
  %12 = icmp ne ptr %11, null
  br i1 %12, label %13, label %48

13:                                               ; preds = %2
  %14 = load ptr, ptr %4, align 8
  %15 = call noalias ptr @g_strdup(ptr noundef %14)
  store ptr %15, ptr %7, align 8
  %16 = load ptr, ptr %7, align 8
  %17 = call ptr @strtok(ptr noundef %16, ptr noundef @.str.30) #17
  store ptr %17, ptr %6, align 8
  br label %18

18:                                               ; preds = %44, %13
  %19 = load ptr, ptr %6, align 8
  %20 = icmp ne ptr %19, null
  br i1 %20, label %21, label %46

21:                                               ; preds = %18
  %22 = load ptr, ptr %6, align 8
  %23 = call ptr @g_strchug(ptr noundef %22)
  %24 = call ptr @g_strchomp(ptr noundef %23)
  store ptr %24, ptr %6, align 8
  %25 = load ptr, ptr %6, align 8
  %26 = call i64 @strtol(ptr noundef %25, ptr noundef %8, i32 noundef 10) #17
  %27 = trunc i64 %26 to i32
  store i32 %27, ptr %9, align 4
  %28 = load ptr, ptr %8, align 8
  %29 = load ptr, ptr %6, align 8
  %30 = icmp eq ptr %28, %29
  br i1 %30, label %36, label %31

31:                                               ; preds = %21
  %32 = load ptr, ptr %8, align 8
  %33 = load i8, ptr %32, align 1
  %34 = sext i8 %33 to i32
  %35 = icmp ne i32 %34, 0
  br i1 %35, label %36, label %37

36:                                               ; preds = %31, %21
  br label %44

37:                                               ; preds = %31
  %38 = load i32, ptr %9, align 4
  %39 = load i32, ptr %5, align 4
  %40 = icmp ne i32 %38, %39
  br i1 %40, label %41, label %42

41:                                               ; preds = %37
  br label %44

42:                                               ; preds = %37
  %43 = load ptr, ptr %7, align 8
  call void @g_free(ptr noundef %43)
  store i1 false, ptr %3, align 1
  store i32 1, ptr %10, align 4
  br label %49

44:                                               ; preds = %41, %36
  %45 = call ptr @strtok(ptr noundef null, ptr noundef @.str.30) #17
  store ptr %45, ptr %6, align 8
  br label %18, !llvm.loop !59

46:                                               ; preds = %18
  %47 = load ptr, ptr %7, align 8
  call void @g_free(ptr noundef %47)
  br label %48

48:                                               ; preds = %46, %2
  store i1 true, ptr %3, align 1
  store i32 1, ptr %10, align 4
  br label %49

49:                                               ; preds = %48, %42
  call void @llvm.lifetime.end.p0(i64 4, ptr %9) #17
  call void @llvm.lifetime.end.p0(i64 8, ptr %8) #17
  call void @llvm.lifetime.end.p0(i64 8, ptr %7) #17
  call void @llvm.lifetime.end.p0(i64 8, ptr %6) #17
  %50 = load i1, ptr %3, align 1
  ret i1 %50
}