; Function Attrs: null_pointer_is_valid sspstrong uwtable
define internal fastcc noundef zeroext i1 @prefs_is_column_visible(ptr noundef %0, i32 noundef %1) unnamed_addr #1 {
  %3 = alloca ptr, align 8
  call void @llvm.lifetime.start.p0(i64 8, ptr nonnull %3) #25
  %.not = icmp eq ptr %0, null
  br i1 %.not, label %17, label %4

4:                                                ; preds = %2
  %5 = tail call noalias ptr @g_strdup(ptr noundef nonnull %0)
  %6 = tail call ptr @strtok(ptr noundef %5, ptr noundef nonnull @.str.30) #25
  %.not1417 = icmp eq ptr %6, null
  br i1 %.not1417, label %.sink.split, label %.lr.ph

.lr.ph:                                           ; preds = %4, %15
  %.01118 = phi ptr [ %16, %15 ], [ %6, %4 ]
  %7 = tail call ptr @g_strchug(ptr noundef nonnull %.01118)
  %8 = tail call ptr @g_strchomp(ptr noundef %7)
  %9 = call i64 @strtol(ptr noundef %8, ptr noundef nonnull %3, i32 noundef 10) #25
  %10 = load ptr, ptr %3, align 8
  %11 = icmp eq ptr %10, %8
  br i1 %11, label %15, label %12

12:                                               ; preds = %.lr.ph
  %13 = trunc i64 %9 to i32
  %14 = load i8, ptr %10, align 1
  %.not15 = icmp eq i8 %14, 0
  %.not16 = icmp eq i32 %1, %13
  %or.cond = select i1 %.not15, i1 %.not16, i1 false
  br i1 %or.cond, label %.sink.split, label %15

15:                                               ; preds = %.lr.ph, %12
  %16 = tail call ptr @strtok(ptr noundef null, ptr noundef nonnull @.str.30) #25
  %.not14 = icmp eq ptr %16, null
  br i1 %.not14, label %.sink.split, label %.lr.ph, !llvm.loop !62

.sink.split:                                      ; preds = %15, %12, %4
  %.0.ph = phi i1 [ true, %4 ], [ false, %12 ], [ true, %15 ]
  tail call void @g_free(ptr noundef %5)
  br label %17

17:                                               ; preds = %.sink.split, %2
  %.0 = phi i1 [ true, %2 ], [ %.0.ph, %.sink.split ]
  call void @llvm.lifetime.end.p0(i64 8, ptr nonnull %3) #25
  ret i1 %.0
}